target datalayout = "e-m:e-p270:32:32-p271:32:32-p272:64:64-i64:64-i128:128-f80:128-n8:16:32:64-S128"
target triple = "x86_64-pc-linux-gnu"

@hf_wsp_variable_value = internal global i32 0, align 4
@.str.811 = private unnamed_addr constant [7 x i8] c"%s: %s\00", align 1

; Function Attrs: null_pointer_is_valid sspstrong uwtable
define internal void @add_post_variable(ptr noundef %0, ptr noundef %1, i32 noundef %2, i32 noundef %3, i32 noundef %4, i32 noundef %5) #1 {
  %7 = alloca ptr, align 8
  %8 = alloca ptr, align 8
  %9 = alloca i32, align 4
  %10 = alloca i32, align 4
  %11 = alloca i32, align 4
  %12 = alloca i32, align 4
  %13 = alloca i32, align 4
  %14 = alloca i32, align 4
  %15 = alloca ptr, align 8
  %16 = alloca ptr, align 8
  store ptr %0, ptr %7, align 8
  store ptr %1, ptr %8, align 8
  store i32 %2, ptr %9, align 4
  store i32 %3, ptr %10, align 4
  store i32 %4, ptr %11, align 4
  store i32 %5, ptr %12, align 4
  call void @llvm.lifetime.start.p0(i64 4, ptr %13) #8
  %17 = load i32, ptr %10, align 4
  %18 = load i32, ptr %9, align 4
  %19 = sub i32 %17, %18
  store i32 %19, ptr %13, align 4
  call void @llvm.lifetime.start.p0(i64 4, ptr %14) #8
  store i32 0, ptr %14, align 4
  call void @llvm.lifetime.start.p0(i64 8, ptr %15) #8
  call void @llvm.lifetime.start.p0(i64 8, ptr %16) #8
  %20 = call ptr @wmem_packet_scope()
  %21 = load ptr, ptr %8, align 8
  %22 = load i32, ptr %9, align 4
  %23 = load i32, ptr %13, align 4
  %24 = call ptr @tvb_get_string_enc(ptr noundef %20, ptr noundef %21, i32 noundef %22, i32 noundef %23, i32 noundef 0)
  store ptr %24, ptr %15, align 8
  %25 = load i32, ptr %12, align 4
  %26 = load i32, ptr %11, align 4
  %27 = icmp ult i32 %25, %26
  br i1 %27, label %28, label %34

28:                                               ; preds = %6
  %29 = call ptr @wmem_packet_scope()
  %30 = call noalias ptr @wmem_alloc(ptr noundef %29, i64 noundef 1) #9
  store ptr %30, ptr %16, align 8
  %31 = load ptr, ptr %16, align 8
  %32 = getelementptr i8, ptr %31, i64 0
  store i8 0, ptr %32, align 1
  %33 = load i32, ptr %11, align 4
  store i32 %33, ptr %12, align 4
  br label %43

34:                                               ; preds = %6
  %35 = load i32, ptr %12, align 4
  %36 = load i32, ptr %11, align 4
  %37 = sub i32 %35, %36
  store i32 %37, ptr %14, align 4
  %38 = call ptr @wmem_packet_scope()
  %39 = load ptr, ptr %8, align 8
  %40 = load i32, ptr %11, align 4
  %41 = load i32, ptr %14, align 4
  %42 = call ptr @tvb_get_string_enc(ptr noundef %38, ptr noundef %39, i32 noundef %40, i32 noundef %41, i32 noundef 0)
  store ptr %42, ptr %16, align 8
  br label %43

43:                                               ; preds = %34, %28
  %44 = load i32, ptr %11, align 4
  %45 = load ptr, ptr %8, align 8
  %46 = call i32 @tvb_reported_length(ptr noundef %45)
  %47 = icmp uge i32 %44, %46
  br i1 %47, label %48, label %52

48:                                               ; preds = %43
  %49 = load ptr, ptr %8, align 8
  %50 = call i32 @tvb_reported_length(ptr noundef %49)
  store i32 %50, ptr %11, align 4
  %51 = load i32, ptr %11, align 4
  store i32 %51, ptr %12, align 4
  br label %52

52:                                               ; preds = %48, %43
  %53 = load i32, ptr %12, align 4
  %54 = load i32, ptr %11, align 4
  %55 = sub i32 %53, %54
  store i32 %55, ptr %14, align 4
  %56 = load ptr, ptr %7, align 8
  %57 = load i32, ptr @hf_wsp_variable_value, align 4
  %58 = load ptr, ptr %8, align 8
  %59 = load i32, ptr %9, align 4
  %60 = load i32, ptr %14, align 4
  %61 = load ptr, ptr %16, align 8
  %62 = load ptr, ptr %15, align 8
  %63 = load ptr, ptr %16, align 8
  %64 = call ptr (ptr, i32, ptr, i32, i32, ptr, ptr, ...) @proto_tree_add_string_format(ptr noundef %56, i32 noundef %57, ptr noundef %58, i32 noundef %59, i32 noundef %60, ptr noundef %61, ptr noundef @.str.811, ptr noundef %62, ptr noundef %63)
  call void @llvm.lifetime.end.p0(i64 8, ptr %16) #8
  call void @llvm.lifetime.end.p0(i64 8, ptr %15) #8
  call void @llvm.lifetime.end.p0(i64 4, ptr %14) #8
  call void @llvm.lifetime.end.p0(i64 4, ptr %13) #8
  ret void
}