; Function Attrs: null_pointer_is_valid sspstrong uwtable
define internal fastcc void @add_post_variable(ptr noundef %0, ptr noundef %1, i32 noundef %2, i32 noundef range(i32 1, 0) %3, i32 noundef %4, i32 noundef %5) unnamed_addr #1 {
  %7 = sub i32 %3, %2
  %8 = tail call ptr @wmem_packet_scope()
  %9 = tail call ptr @tvb_get_string_enc(ptr noundef %8, ptr noundef %1, i32 noundef %2, i32 noundef %7, i32 noundef 0)
  %10 = icmp ult i32 %5, %4
  br i1 %10, label %11, label %14

11:                                               ; preds = %6
  %12 = tail call ptr @wmem_packet_scope()
  %13 = tail call noalias dereferenceable_or_null(1) ptr @wmem_alloc(ptr noundef %12, i64 noundef 1) #6
  store i8 0, ptr %13, align 1
  br label %18

14:                                               ; preds = %6
  %15 = sub nuw i32 %5, %4
  %16 = tail call ptr @wmem_packet_scope()
  %17 = tail call ptr @tvb_get_string_enc(ptr noundef %16, ptr noundef %1, i32 noundef %4, i32 noundef %15, i32 noundef 0)
  br label %18

18:                                               ; preds = %14, %11
  %.027 = phi i32 [ %4, %11 ], [ %5, %14 ]
  %.0 = phi ptr [ %13, %11 ], [ %17, %14 ]
  %19 = tail call i32 @tvb_reported_length(ptr noundef %1)
  %.not = icmp ult i32 %4, %19
  br i1 %.not, label %22, label %20

20:                                               ; preds = %18
  %21 = tail call i32 @tvb_reported_length(ptr noundef %1)
  br label %22

22:                                               ; preds = %20, %18
  %.1 = phi i32 [ %21, %20 ], [ %.027, %18 ]
  %.026 = phi i32 [ %21, %20 ], [ %4, %18 ]
  %23 = sub i32 %.1, %.026
  %24 = load i32, ptr @hf_wsp_variable_value, align 4
  %25 = tail call ptr (ptr, i32, ptr, i32, i32, ptr, ptr, ...) @proto_tree_add_string_format(ptr noundef %0, i32 noundef %24, ptr noundef %1, i32 noundef %2, i32 noundef %23, ptr noundef %.0, ptr noundef nonnull @.str.811, ptr noundef %9, ptr noundef %.0)
  ret void
}